(lp1
(lp2
V0,1
p3
aVHost
p4
aV4
aV4000
p5
aV1000
p6
aV10000
p7
aV1000
p8
aVSpace Shared
p9
aV0
aS'\n'
aV2,3
p10
aVHost
p11
aV4
aV4000
p12
aV1000
p13
aV10000
p14
aV1000
p15
aVTime Shared
p16
aV1
aS'\n'
aa(lp17
V0,1
p18
aVDatacenter
p19
aS'\n'
aV2,3
p20
aVDatacenter
p21
aS'\n'
aa(lp22
V0
aVBroker 
p23
aS'\n'
aV1,3
p24
aVBroker 
p25
aS'\n'
aV4,5
p26
aVBroker
p27
aS'\n'
aa(lp28
V0,4
p29
aVVM 
p30
aV1
aV1000
p31
aV250
p32
aV2500
p33
aV250
p34
aVSpace Shared
p35
aV0
aS'\n'
aV5,9
p36
aVVM 
p37
aV1
aV1000
p38
aV250
p39
aV2500
p40
aV250
p41
aVSpace Shared
p42
aV1
aS'\n'
aV10,14
p43
aVVM 
p44
aV1
aV1000
p45
aV250
p46
aV2500
p47
aV250
p48
aVSpace Shared
p49
aV2
aS'\n'
aV15,19
p50
aVVM 
p51
aV1
aV1000
p52
aV250
p53
aV2500
p54
aV250
p55
aVSpace Shared
p56
aV3
aS'\n'
aa(lp57
V0,63
p58
aVCloudlet 
p59
aV4000000
p60
aV1
aV0,4000
p61
aV0
aV
aS'\n'
aV64,127
p62
aVCloudlet 
p63
aV4000000
p64
aV1
aV0,4000
p65
aV1
aV
aS'\n'
aV128,191
p66
aVCloudlet 
p67
aV4000000
p68
aV1
aV0,4000
p69
aV2
aV
aS'\n'
aV192,255
p70
aVCloudlet 
p71
aV4000000
p72
aV1
aV0,4000
p73
aV3
aV
aS'\n'
aa.